(dp0
cdivisi2.sparse
_vector_from_state
p1
((dp2
S'labels'
p3
ccopy_reg
_reconstructor
p4
(ccsc_utils.ordered_set
OrderedSet
p5
c__builtin__
object
p6
Ntp7
Rp8
(lp9
S'birthday'
p10
aS'child'
p11
absS'version'
p12
I1
sS'nentries'
p13
I2
sS'lists'
p14
((lp15
F1.0
aF1.0
a(lp16
I0
aI1
atp17
stp18
Rp19
(lp20
(Vbirth
p21
cnumpy.core.multiarray
scalar
p22
(cnumpy
dtype
p23
(S'f8'
p24
I0
I1
tp25
Rp26
(I3
S'<'
p27
NNNI-1
I-1
I0
tp28
bS'T\xb8|\x95\xa6\x05\xf3?'
p29
tp30
Rp31
tp32
a(Vnativity
p33
g22
(g26
S'\xbaI\x7f\xd5a\xc1\xf1?'
p34
tp35
Rp36
tp37
a(Vchild
p38
g22
(g26
S'\x958\rX\xadX\xf1?'
p39
tp40
Rp41
tp42
a(Vbirthday
p43
g22
(g26
S'\x908\rX\xadX\xf1?'
p44
tp45
Rp46
tp47
a(Vmother womb
p48
g22
(g26
S'<#w\x17d;\xf1?'
p49
tp50
Rp51
tp52
a(Vnew baby
p53
g22
(g26
S'\xce\xf8\x16}%\x81\xf0?'
p54
tp55
Rp56
tp57
a(Vannual celebration
p58
g22
(g26
S'\x0e\xf8n\x89uf\xf0?'
p59
tp60
Rp61
tp62
a(Vthanksgiving
p63
g22
(g26
S' c(3\x01;\xf0?'
p64
tp65
Rp66
tp67
a(Vyearly celebration
p68
g22
(g26
S'\xfeO%;\r9\xf0?'
p69
tp70
Rp71
tp72
a(Vspecial day
p73
g22
(g26
S'\xf8\x95\xb6\x98\x93-\xf0?'
p74
tp75
Rp76
tp77
a(Vhow old
p78
g22
(g26
S'\xc0\xa5\xd2V\xfe\x00\xf0?'
p79
tp80
Rp81
tp82
a(Vanniversary
p83
g22
(g26
S'\x9e#\xa7\x07s\xfd\xef?'
p84
tp85
Rp86
tp87
a(Vyouth
p88
g22
(g26
S'-5\xe4L=\xf7\xef?'
p89
tp90
Rp91
tp92
a(Vblow candle
p93
g22
(g26
S'C1Xl\xa1\xe5\xef?'
p94
tp95
Rp96
tp97
a(Vborn
p98
g22
(g26
S'\x1bK\xfd\xba\x9a\x96\xef?'
p99
tp100
Rp101
tp102
a(Vparty time
p103
g22
(g26
S'\xc9\xd4\x90\x1dp\x89\xef?'
p104
tp105
Rp106
tp107
a(Vfestive
p108
g22
(g26
S'\xdc\xd1\x8du\xe2T\xef?'
p109
tp110
Rp111
tp112
a(Vcake candle
p113
g22
(g26
S'c\xa8n;!=\xef?'
p114
tp115
Rp116
tp117
a(Vspecial moment
p118
g22
(g26
S'\x04W\xa5H\xeb\xe1\xee?'
p119
tp120
Rp121
tp122
a(Veat cake
p123
g22
(g26
S'A\x8d\x8b\xc0v\xe0\xee?'
p124
tp125
Rp126
tp127
asg1
((dp128
g3
g4
(g5
g6
Ntp129
Rp130
(lp131
S'pet'
p132
ag10
absg12
I1
sg13
I2
sg14
((lp133
F1.0
aF1.0
a(lp134
I0
aI1
atp135
stp136
Rp137
(lp138
(g43
g22
(g26
S'\x07\xa2\xf4\xbb\x1f\xeb\xee?'
p139
tp140
Rp141
tp142
a(Vpet
p143
g22
(g26
S'\x06\xa2\xf4\xbb\x1f\xeb\xee?'
p144
tp145
Rp146
tp147
a(Vhowler
p148
g22
(g26
S'\xb68\xe1\xba\x10@\xee?'
p149
tp150
Rp151
tp152
a(g103
g22
(g26
S'\x0f\x08L\xd4u\x07\xee?'
p153
tp154
Rp155
tp156
a(g68
g22
(g26
S'ANKk=\x07\xee?'
p157
tp158
Rp159
tp160
a(g123
g22
(g26
S'\x02E}\x94\x89\xfa\xed?'
p161
tp162
Rp163
tp164
a(g73
g22
(g26
S'p\x93\x94i\xfb\xf6\xed?'
p165
tp166
Rp167
tp168
a(g113
g22
(g26
S'\x1a\x81\x18\xa6\xbe\xc9\xed?'
p169
tp170
Rp171
tp172
a(g108
g22
(g26
S'7\xe45KI\xb2\xed?'
p173
tp174
Rp175
tp176
a(g93
g22
(g26
S'F\xf4\xc8z+\xa4\xed?'
p177
tp178
Rp179
tp180
a(g58
g22
(g26
S'\x13\xa0\xd7\xf7\xd3\x87\xed?'
p181
tp182
Rp183
tp184
a(Vto person
p185
g22
(g26
S'\x92\xa2@\xb6\x85r\xed?'
p186
tp187
Rp188
tp189
a(Vhouse pet
p190
g22
(g26
S'\x88\xc9\xf4\x9b8p\xed?'
p191
tp192
Rp193
tp194
a(Vhouse animal
p195
g22
(g26
S'\xb9\xf6 \x05DZ\xed?'
p196
tp197
Rp198
tp199
a(g83
g22
(g26
S'2\x1c\x8e\xdd\xf0E\xed?'
p200
tp201
Rp202
tp203
a(Vlike cat
p204
g22
(g26
S'O\x0e\xef\xc2\xae=\xed?'
p205
tp206
Rp207
tp208
a(Vhousehold animal
p209
g22
(g26
S'K}^\x1a<\x16\xed?'
p210
tp211
Rp212
tp213
a(Vfeline animal
p214
g22
(g26
S'\x89q@\xcd\x07\x16\xed?'
p215
tp216
Rp217
tp218
a(Vlarge cat
p219
g22
(g26
S'\x81\xac`\xafS\xfa\xec?'
p220
tp221
Rp222
tp223
a(Vpaw
p224
g22
(g26
S'r9\xc3w\xff\xf1\xec?'
p225
tp226
Rp227
tp228
asg1
((dp229
g3
g4
(g5
g6
Ntp230
Rp231
(lp232
g10
aS'friend'
p233
absg12
I1
sg13
I2
sg14
((lp234
F1.0
aF1.0
a(lp235
I0
aI1
atp236
stp237
Rp238
(lp239
(Vcelebrate birthday
p240
g22
(g26
S'\xd2\x1d\x12\xce\xc5w\xf2?'
p241
tp242
Rp243
tp244
a(g123
g22
(g26
S'F`\x92\xe7\xd0\xd0\xf1?'
p245
tp246
Rp247
tp248
a(Vfriend
p249
g22
(g26
S'UVTF)\xb8\xf1?'
p250
tp251
Rp252
tp253
a(g43
g22
(g26
S'UVTF)\xb8\xf1?'
p254
tp255
Rp256
tp257
a(g108
g22
(g26
S'\xf0\xc4G\xab\x8e\xa7\xf1?'
p258
tp259
Rp260
tp261
a(Vcelebrate occasion
p262
g22
(g26
S'\x85\x94g\xecZ\x89\xf1?'
p263
tp264
Rp265
tp266
a(Vparty
p267
g22
(g26
S'5\xb4\xa4\x9f%\x84\xf1?'
p268
tp269
Rp270
tp271
a(Vfestivity
p272
g22
(g26
S'\x87\xc8\x05\x9cR|\xf1?'
p273
tp274
Rp275
tp276
a(Vcelebrate event
p277
g22
(g26
S"K'\xbd\xc6\x05S\xf1?"
p278
tp279
Rp280
tp281
a(g83
g22
(g26
S'\xa3_\xc0SeN\xf1?'
p282
tp283
Rp284
tp285
a(g113
g22
(g26
S'\x9dy\xfe%\xc8A\xf1?'
p286
tp287
Rp288
tp289
a(Vbirthday party
p290
g22
(g26
S'\xfb\rl\xb7\x95\x1d\xf1?'
p291
tp292
Rp293
tp294
a(g53
g22
(g26
S'\xbc\xaf\\\xde\xeb\x17\xf1?'
p295
tp296
Rp297
tp298
a(Vjoke around
p299
g22
(g26
S'{\x14~}Y\x10\xf1?'
p300
tp301
Rp302
tp303
a(g93
g22
(g26
S'2\xa9M\xb8\xb2\x0b\xf1?'
p304
tp305
Rp306
tp307
a(Vinvite friend over
p308
g22
(g26
S'q\xb08F\x99\xfc\xf0?'
p309
tp310
Rp311
tp312
a(Voutgo personality
p313
g22
(g26
S'o\x81p\xe9q\xfc\xf0?'
p314
tp315
Rp316
tp317
a(Vperson fun
p318
g22
(g26
S'"@.s\xb6\xe4\xf0?'
p319
tp320
Rp321
tp322
a(g103
g22
(g26
S'\xe7\x0f(\\\x84\xe2\xf0?'
p323
tp324
Rp325
tp326
a(Vholiday
p327
g22
(g26
S'\x80jS\\\x89\xd5\xf0?'
p328
tp329
Rp330
tp331
asg1
((dp332
g3
g4
(g5
g6
Ntp333
Rp334
(lp335
S'cousin'
p336
aS"valentine's day"
p337
absg12
I1
sg13
I2
sg14
((lp338
F1.0
aF1.0
a(lp339
I0
aI1
atp340
stp341
Rp342
(lp343
(Vcousin
p344
g22
(g26
S'\xff\xff\xff\xff\xff\xff\xef?'
p345
tp346
Rp347
tp348
a(Vbrother sister
p349
g22
(g26
S'\x9c\x80\xc3\x8c\xeb\x91\xef?'
p350
tp351
Rp352
tp353
a(Vrelation
p354
g22
(g26
S'\xeb{\xe9k\x01k\xef?'
p355
tp356
Rp357
tp358
a(Vbrother
p359
g22
(g26
S'\xc5\nK?n\x12\xef?'
p360
tp361
Rp362
tp363
a(Vrelative
p364
g22
(g26
S'\x0e \xb2v\x03\x04\xef?'
p365
tp366
Rp367
tp368
a(Vmother brother
p369
g22
(g26
S'\x93nS\xc9\xe0\xdd\xee?'
p370
tp371
Rp372
tp373
a(Vdad
p374
g22
(g26
S'\xdc\x96\xb6\x085\xd2\xee?'
p375
tp376
Rp377
tp378
a(Vaunt uncle
p379
g22
(g26
S'2\x86T\x020\xd1\xee?'
p380
tp381
Rp382
tp383
a(Vnephew
p384
g22
(g26
S'i\xab\xf1\x1b\xfe\xcd\xee?'
p385
tp386
Rp387
tp388
a(Vfamily relationship term
p389
g22
(g26
S'\xb4\xc0\xfd\xe8\x98\xb7\xee?'
p390
tp391
Rp392
tp393
a(Vsister
p394
g22
(g26
S'\xbb\xe2Kw\xc5\xaa\xee?'
p395
tp396
Rp397
tp398
a(Vsibling
p399
g22
(g26
S'/\x8a\x86\xbc\xfe\xa0\xee?'
p400
tp401
Rp402
tp403
a(Vsame parent
p404
g22
(g26
S"\xa7\\7'$\x9c\xee?"
p405
tp406
Rp407
tp408
a(Vmale relative
p409
g22
(g26
S'\r\x10\xb1Z\xff\x89\xee?'
p410
tp411
Rp412
tp413
a(Vmember family
p414
g22
(g26
S'\x86\xb2\xa6iNn\xee?'
p415
tp416
Rp417
tp418
a(Vrelate person
p419
g22
(g26
S'q-2P1m\xee?'
p420
tp421
Rp422
tp423
a(Vaunt
p424
g22
(g26
S'\xd02\x9d\x9a\xcf_\xee?'
p425
tp426
Rp427
tp428
a(Vfather son
p429
g22
(g26
S'\xbfDD\xed\xbeV\xee?'
p430
tp431
Rp432
tp433
a(Vmale parent
p434
g22
(g26
S':\xdbo\xc3YR\xee?'
p435
tp436
Rp437
tp438
a(Vfemale sibling
p439
g22
(g26
S'\x84SM\xe5YO\xee?'
p440
tp441
Rp442
tp443
asg1
((dp444
g3
g4
(g5
g6
Ntp445
Rp446
(lp447
g132
aS'christmas day'
p448
absg12
I1
sg13
I2
sg14
((lp449
F1.0
aF1.0
a(lp450
I0
aI1
atp451
stp452
Rp453
(lp454
(g143
g22
(g26
S'\xfa\xff\xff\xff\xff\xff\xef?'
p455
tp456
Rp457
tp458
a(g195
g22
(g26
S'\x88\xe1)\xf3\xd4\xbb\xee?'
p459
tp460
Rp461
tp462
a(g209
g22
(g26
S'\xe6\x15\xc4\x97\x82\xa5\xee?'
p463
tp464
Rp465
tp466
a(Vclaw
p467
g22
(g26
S'\xcc`\xcb\x0c0\x86\xee?'
p468
tp469
Rp470
tp471
a(Vkeep pet
p472
g22
(g26
S'\xbe\xbcK\x83\xdbx\xee?'
p473
tp474
Rp475
tp476
a(g214
g22
(g26
S'\xe4}\xado"J\xee?'
p477
tp478
Rp479
tp480
a(g224
g22
(g26
S'\x13|$:\\%\xee?'
p481
tp482
Rp483
tp484
a(Vman best friend
p485
g22
(g26
S'&[\xf64=\x07\xee?'
p486
tp487
Rp488
tp489
a(g204
g22
(g26
S'\x11\x8a\xbcL1\x05\xee?'
p490
tp491
Rp492
tp493
a(Vcurious animal
p494
g22
(g26
S'\xf6Y\x94\x9e^\x04\xee?'
p495
tp496
Rp497
tp498
a(g219
g22
(g26
S'"\x10\x0e\\0\xf7\xed?'
p499
tp500
Rp501
tp502
a(Vdomestic pet
p503
g22
(g26
S'c\xf5\x9fA\xe0\xdd\xed?'
p504
tp505
Rp506
tp507
a(Vfurry pet
p508
g22
(g26
S'\xf3s\xd1r\xfe\xcc\xed?'
p509
tp510
Rp511
tp512
a(Vhome animal
p513
g22
(g26
S'=\xd5\n\x10\x17\xbe\xed?'
p514
tp515
Rp516
tp517
a(Vhound
p518
g22
(g26
S'\xe3ny\xf9u\xb3\xed?'
p519
tp520
Rp521
tp522
a(Vhousehold pet
p523
g22
(g26
S'\x0eC\x96\x9d\xc5\xa0\xed?'
p524
tp525
Rp526
tp527
a(Vcommon pet
p528
g22
(g26
S'eQ\xba\xff\xea\x81\xed?'
p529
tp530
Rp531
tp532
a(g190
g22
(g26
S'C\x00=\xd6\x1e{\xed?'
p533
tp534
Rp535
tp536
a(Vkennel
p537
g22
(g26
S'\xaa"!gcv\xed?'
p538
tp539
Rp540
tp541
a(Vcanine
p542
g22
(g26
S'V\xb3\xdd\xbf\xd2]\xed?'
p543
tp544
Rp545
tp546
asg1
((dp547
g3
g4
(g5
g6
Ntp548
Rp549
(lp550
g10
aS'teacher'
p551
absg12
I1
sg13
I2
sg14
((lp552
F1.0
aF1.0
a(lp553
I0
aI1
atp554
stp555
Rp556
(lp557
(Vteacher
p558
g22
(g26
S'^.\xf5\xe7_K\xed?'
p559
tp560
Rp561
tp562
a(g43
g22
(g26
S'\\.\xf5\xe7_K\xed?'
p563
tp564
Rp565
tp566
a(Vschool division
p567
g22
(g26
S'\x90\x85\x83\x9a\x1e\xbe\xec?'
p568
tp569
Rp570
tp571
a(Vclass
p572
g22
(g26
S'\x92I\x7f\x86:\x82\xec?'
p573
tp574
Rp575
tp576
a(Vschool session
p577
g22
(g26
S'&GE\xfd\xcet\xec?'
p578
tp579
Rp580
tp581
a(Vfreshman
p582
g22
(g26
S'UD\xbd<\x07q\xec?'
p583
tp584
Rp585
tp586
a(Vstudent place
p587
g22
(g26
S'\xb2l\xb6\r\xa6a\xec?'
p588
tp589
Rp590
tp591
a(Vstudent teacher
p592
g22
(g26
S'Y\x0f\x9e\x87\xdb_\xec?'
p593
tp594
Rp595
tp596
a(Vtext book
p597
g22
(g26
S"F\xdc'>\xc5]\xec?"
p598
tp599
Rp600
tp601
a(Vprofessor
p602
g22
(g26
S'ECh\x03\x91D\xec?'
p603
tp604
Rp605
tp606
a(Vteach person
p607
g22
(g26
S'h\xfbR\xc3\x99\x1e\xec?'
p608
tp609
Rp610
tp611
a(Vteach student
p612
g22
(g26
S'$\r\x9eF\x94\x17\xec?'
p613
tp614
Rp615
tp616
a(Vsemester
p617
g22
(g26
S'\xa2K\xdeR\xda\x08\xec?'
p618
tp619
Rp620
tp621
a(Vteacher student
p622
g22
(g26
S'\x88\xd6\xa7\xa0\xc0\x03\xec?'
p623
tp624
Rp625
tp626
a(g73
g22
(g26
S'\xfcb&\xd0+\xfe\xeb?'
p627
tp628
Rp629
tp630
a(g58
g22
(g26
S'\x0ba\x92?\xa0\xe3\xeb?'
p631
tp632
Rp633
tp634
a(Vgroup student
p635
g22
(g26
S'\xec\\\xadNu\xd6\xeb?'
p636
tp637
Rp638
tp639
a(Vlearn evolution
p640
g22
(g26
S'\xb1\xb7.\xc7@\xcf\xeb?'
p641
tp642
Rp643
tp644
a(g93
g22
(g26
S'\xb5\nq\xa1D\xbc\xeb?'
p645
tp646
Rp647
tp648
a(Vlearn place
p649
g22
(g26
S'\xab\xbc\x0e\xc8\xdb\xaa\xeb?'
p650
tp651
Rp652
tp653
asg1
((dp654
g3
g4
(g5
g6
Ntp655
Rp656
(lp657
S'couple'
p658
ag337
absg12
I1
sg13
I2
sg14
((lp659
F1.0
aF1.0
a(lp660
I0
aI1
atp661
stp662
Rp663
(lp664
(Vcouple
p665
g22
(g26
S'\x00\x00\x00\x00\x00\x00\xf0?'
p666
tp667
Rp668
tp669
a(Vtwo person
p670
g22
(g26
S'\xc6HeQx\xc0\xe9?'
p671
tp672
Rp673
tp674
a(Vmarry
p675
g22
(g26
S'\xb3u\x00.\xaa\xb2\xe8?'
p676
tp677
Rp678
tp679
a(Vpropose woman
p680
g22
(g26
S'\xb1\x10j\xb5SC\xe8?'
p681
tp682
Rp683
tp684
a(Vman woman
p685
g22
(g26
S'\xcaF\xbb\xc2W\x1c\xe8?'
p686
tp687
Rp688
tp689
a(Vmatrimony
p690
g22
(g26
S'\xa77\x871\xac\x0e\xe8?'
p691
tp692
Rp693
tp694
a(Vloss freedom
p695
g22
(g26
S'\xf7\x95<\xa9o\x00\xe8?'
p696
tp697
Rp698
tp699
a(Vholy matrimony
p700
g22
(g26
S'\xcc\x88\xb9\xcfs\xe8\xe7?'
p701
tp702
Rp703
tp704
a(Vtwo woman
p705
g22
(g26
S'\xa9\xa0S\x8c\x87\xda\xe7?'
p706
tp707
Rp708
tp709
a(Vhusband wife
p710
g22
(g26
S'\xe2\xcc\x11H\xc1\xb0\xe7?'
p711
tp712
Rp713
tp714
a(Vclimax
p715
g22
(g26
S'\xdf\x12\n\xf6B\x8d\xe7?'
p716
tp717
Rp718
tp719
a(Vprocreation
p720
g22
(g26
S'T\xb1\xa4\xa6 Z\xe7?'
p721
tp722
Rp723
tp724
a(Vbride groom
p725
g22
(g26
S'\x0f \x866\xf5K\xe7?'
p726
tp727
Rp728
tp729
a(Vintimate
p730
g22
(g26
S'\xf3\\jx\x8b)\xe7?'
p731
tp732
Rp733
tp734
a(Vfind will partner
p735
g22
(g26
S'\x8dQ\xacO\x9a\xdc\xe6?'
p736
tp737
Rp738
tp739
a(Vmarriage
p740
g22
(g26
S'p*\xb5\xd5\x93\xd9\xe6?'
p741
tp742
Rp743
tp744
a(Vperson kiss
p745
g22
(g26
S'\xc9^@dr\xd5\xe6?'
p746
tp747
Rp748
tp749
a(Vmake love
p750
g22
(g26
S'\xd2\xf9\x96%l\xab\xe6?'
p751
tp752
Rp753
tp754
a(Vbecome arouse
p755
g22
(g26
S'2v\xa3\xbc:\x9b\xe6?'
p756
tp757
Rp758
tp759
a(Vforeplay
p760
g22
(g26
S'\x13\xf7\xfcc]\x95\xe6?'
p761
tp762
Rp763
tp764
asg1
((dp765
g3
g4
(g5
g6
Ntp766
Rp767
(lp768
g336
ag10
absg12
I1
sg13
I2
sg14
((lp769
F1.0
aF1.0
a(lp770
I0
aI1
atp771
stp772
Rp773
(lp774
(g63
g22
(g26
S'\xf93\x9d\x91\x86\xfe\xf3?'
p775
tp776
Rp777
tp778
a(Vgrandma
p779
g22
(g26
S's\xe3*\x9c]\x9e\xf0?'
p780
tp781
Rp782
tp783
a(g349
g22
(g26
S'g\xb1I\x10\xa9\x83\xf0?'
p784
tp785
Rp786
tp787
a(g344
g22
(g26
S'\x16~,jNj\xf0?'
p788
tp789
Rp790
tp791
a(g43
g22
(g26
S'\x12~,jNj\xf0?'
p792
tp793
Rp794
tp795
a(g364
g22
(g26
S'^\xd8\x0e\xfb\x0f5\xf0?'
p796
tp797
Rp798
tp799
a(g354
g22
(g26
S'4\x94\x08\xf9\xf50\xf0?'
p800
tp801
Rp802
tp803
a(g379
g22
(g26
S'\xc7\xf8\xbe\x19;\x1e\xf0?'
p804
tp805
Rp806
tp807
a(Vfamily
p808
g22
(g26
S'\x86\x97G~a\x13\xf0?'
p809
tp810
Rp811
tp812
a(Vgive present
p813
g22
(g26
S'r\x82\xf0w\xad\x01\xf0?'
p814
tp815
Rp816
tp817
a(g419
g22
(g26
S'\x92\x9cB\x80\xe2\xea\xef?'
p818
tp819
Rp820
tp821
a(g394
g22
(g26
S'Y\xfc\xc8\xb6\x91\xca\xef?'
p822
tp823
Rp824
tp825
a(g73
g22
(g26
S'$\x10\x89\x10h\xbc\xef?'
p826
tp827
Rp828
tp829
a(g103
g22
(g26
S"{'\xf4_\x17\xb4\xef?"
p830
tp831
Rp832
tp833
a(g369
g22
(g26
S'\xa1\xb2E-\xd1\xb1\xef?'
p834
tp835
Rp836
tp837
a(g429
g22
(g26
S'\ru\xbcT5\xa3\xef?'
p838
tp839
Rp840
tp841
a(g399
g22
(g26
S'\x04\x8b\xd28\x01\x90\xef?'
p842
tp843
Rp844
tp845
a(Vlove one
p846
g22
(g26
S'2\xa7\xee\x84\x00\x90\xef?'
p847
tp848
Rp849
tp850
a(g384
g22
(g26
S'\xc0h?-\xabo\xef?'
p851
tp852
Rp853
tp854
a(g424
g22
(g26
S'\xdaA{\xea\x8fa\xef?'
p855
tp856
Rp857
tp858
asg1
((dp859
g3
g4
(g5
g6
Ntp860
Rp861
(lp862
S'sibling'
p863
ag337
absg12
I1
sg13
I2
sg14
((lp864
F1.0
aF1.0
a(lp865
I0
aI1
atp866
stp867
Rp868
(lp869
(g399
g22
(g26
S'\xff\xff\xff\xff\xff\xff\xef?'
p870
tp871
Rp872
tp873
a(g439
g22
(g26
S"\r\xc6x'p\xbd\xef?"
p874
tp875
Rp876
tp877
a(Vfamily member
p878
g22
(g26
S'\xd0Y\x1dVz\xb9\xef?'
p879
tp880
Rp881
tp882
a(g404
g22
(g26
S'\xc1\xfbS\xb3k\xb1\xef?'
p883
tp884
Rp885
tp886
a(g419
g22
(g26
S'\xd5\xd0~\xc5\xe3\xa5\xef?'
p887
tp888
Rp889
tp890
a(Vfamily relation
p891
g22
(g26
S'\x97:\xf2>\xd1\x9a\xef?'
p892
tp893
Rp894
tp895
a(g364
g22
(g26
S'\x8b\x9f\x9f\xb4\xda\x7f\xef?'
p896
tp897
Rp898
tp899
a(g394
g22
(g26
S'9\xe2\x96\xda\x91q\xef?'
p900
tp901
Rp902
tp903
a(g424
g22
(g26
S'%\xcb\x9c\xa9\xccn\xef?'
p904
tp905
Rp906
tp907
a(g409
g22
(g26
S'\xa2Lf\x0b\x10k\xef?'
p908
tp909
Rp910
tp911
a(g389
g22
(g26
S'3\xcb\x921\xf3e\xef?'
p912
tp913
Rp914
tp915
a(g379
g22
(g26
S'Vg\xf3\x8a\xffa\xef?'
p916
tp917
Rp918
tp919
a(g369
g22
(g26
S'\rjn\xfc\xac`\xef?'
p920
tp921
Rp922
tp923
a(g414
g22
(g26
S'J<\xf1R\xf5Z\xef?'
p924
tp925
Rp926
tp927
a(Vfamilial relationship
p928
g22
(g26
S'\x1e\xd07\xc89W\xef?'
p929
tp930
Rp931
tp932
a(g429
g22
(g26
S'c\xcfV\xb0\x1eU\xef?'
p933
tp934
Rp935
tp936
a(g384
g22
(g26
S'\xb4\xadfe\xfc@\xef?'
p937
tp938
Rp939
tp940
a(g359
g22
(g26
S'\x0fi\xe8l^4\xef?'
p941
tp942
Rp943
tp944
a(g354
g22
(g26
S'\x89[\xe2\x83\xdd&\xef?'
p945
tp946
Rp947
tp948
a(Vspecial person
p949
g22
(g26
S'\xd3\xc5\x1fO\xa5!\xef?'
p950
tp951
Rp952
tp953
asg1
((dp954
g3
g4
(g5
g6
Ntp955
Rp956
(lp957
S'elder'
p958
ag10
absg12
I1
sg13
I2
sg14
((lp959
F1.0
aF1.0
a(lp960
I0
aI1
atp961
stp962
Rp963
(lp964
(g185
g22
(g26
S'\x98u\xae\x0b\x15\xee\xf6?'
p965
tp966
Rp967
tp968
a(g78
g22
(g26
S'\xfd\xab\x17\x84(t\xf6?'
p969
tp970
Rp971
tp972
a(g43
g22
(g26
S'\xc6\x1cU\xbao\xc6\xf5?'
p973
tp974
Rp975
tp976
a(Velder
p977
g22
(g26
S'\xc6\x1cU\xbao\xc6\xf5?'
p978
tp979
Rp980
tp981
a(g68
g22
(g26
S'_?\t\xff\xd0Y\xf5?'
p982
tp983
Rp984
tp985
a(g58
g22
(g26
S'\xf5\xadaEM0\xf5?'
p986
tp987
Rp988
tp989
a(Vpresent
p990
g22
(g26
S'e\xc8Fmg\x10\xf5?'
p991
tp992
Rp993
tp994
a(Vget old
p995
g22
(g26
S'\x9a\xfd\x8akU\xb8\xf4?'
p996
tp997
Rp998
tp999
a(g73
g22
(g26
S'\x18%_.v\x98\xf4?'
p1000
tp1001
Rp1002
tp1003
a(g83
g22
(g26
S'e\xee\xfe\x059k\xf4?'
p1004
tp1005
Rp1006
tp1007
a(g103
g22
(g26
S'\xec\xfb]\xfd&\x16\xf4?'
p1008
tp1009
Rp1010
tp1011
a(Vannual
p1012
g22
(g26
S'\\\x9f\xc8\x7f6\n\xf4?'
p1013
tp1014
Rp1015
tp1016
a(Vgift
p1017
g22
(g26
S'\x16\x01U ~\x03\xf4?'
p1018
tp1019
Rp1020
tp1021
a(g53
g22
(g26
S'\x87\xed-e\xc5\xac\xf3?'
p1022
tp1023
Rp1024
tp1025
a(g327
g22
(g26
S'\xf7\xa4w]&x\xf3?'
p1026
tp1027
Rp1028
tp1029
a(g108
g22
(g26
S'\x14\r\x87\xa6Do\xf3?'
p1030
tp1031
Rp1032
tp1033
a(g118
g22
(g26
S'_\xd4*a\xffn\xf3?'
p1034
tp1035
Rp1036
tp1037
a(Vspecial time
p1038
g22
(g26
S'\xa0\xb9>H`h\xf3?'
p1039
tp1040
Rp1041
tp1042
a(g93
g22
(g26
S'}\xd8?4\xfe4\xf3?'
p1043
tp1044
Rp1045
tp1046
a(Vbirthday gift
p1047
g22
(g26
S'Tc\x9d\xad\x0f\n\xf3?'
p1048
tp1049
Rp1050
tp1051
asg1
((dp1052
g3
g4
(g5
g6
Ntp1053
Rp1054
(lp1055
g337
aS'parent'
p1056
absg12
I1
sg13
I2
sg14
((lp1057
F1.0
aF1.0
a(lp1058
I0
aI1
atp1059
stp1060
Rp1061
(lp1062
(Vparent
p1063
g22
(g26
S'\xfc\xff\xff\xff\xff\xff\xef?'
p1064
tp1065
Rp1066
tp1067
a(Vmother father
p1068
g22
(g26
S'\x8e\x1e\xac\xd9\x95\x06\xef?'
p1069
tp1070
Rp1071
tp1072
a(Vdescendant
p1073
g22
(g26
S'g\x8br3u\xf5\xee?'
p1074
tp1075
Rp1076
tp1077
a(Vgranddaughter
p1078
g22
(g26
S'\x1dz\xb8\x81\xbd\xb9\xee?'
p1079
tp1080
Rp1081
tp1082
a(Vmom dad
p1083
g22
(g26
S'\x1dF\x8d\x03\x80|\xee?'
p1084
tp1085
Rp1086
tp1087
a(Vdaughter
p1088
g22
(g26
S'\xdc\xc4\xe1\tn]\xee?'
p1089
tp1090
Rp1091
tp1092
a(Vfather mother
p1093
g22
(g26
S'ruH\xa2f\x16\xee?'
p1094
tp1095
Rp1096
tp1097
a(Vkin
p1098
g22
(g26
S'\xac\xb3\xc1]\xe6\t\xee?'
p1099
tp1100
Rp1101
tp1102
a(Vmother
p1103
g22
(g26
S'-\x11\xc3\x13d\xe9\xed?'
p1104
tp1105
Rp1106
tp1107
a(Vmom
p1108
g22
(g26
S'}\xdc\xae\x81K~\xed?'
p1109
tp1110
Rp1111
tp1112
a(Vchild parent
p1113
g22
(g26
S'\xa7\x87\x11N\xe8T\xed?'
p1114
tp1115
Rp1116
tp1117
a(Vson
p1118
g22
(g26
S'\xad\xee;\x07\x0c4\xed?'
p1119
tp1120
Rp1121
tp1122
a(g808
g22
(g26
S'-\x87\xf9~K\xd1\xec?'
p1123
tp1124
Rp1125
tp1126
a(Vbabysit
p1127
g22
(g26
S'!dP\xe20\x7f\xec?'
p1128
tp1129
Rp1130
tp1131
a(Vparent child
p1132
g22
(g26
S'_\xcef\x14\x8bC\xec?'
p1133
tp1134
Rp1135
tp1136
a(Vyounger
p1137
g22
(g26
S'k,\xbf\xb1\xae>\xec?'
p1138
tp1139
Rp1140
tp1141
a(g928
g22
(g26
S'Ot^Y\xea.\xec?'
p1142
tp1143
Rp1144
tp1145
a(Vmale child
p1146
g22
(g26
S'\xf7)\xc8wK-\xec?'
p1147
tp1148
Rp1149
tp1150
a(Vfemale relative
p1151
g22
(g26
S' \xff\xb3r\xb2+\xec?'
p1152
tp1153
Rp1154
tp1155
a(Vhuman offspring
p1156
g22
(g26
S'\x83\xa5RK\xba\x1c\xec?'
p1157
tp1158
Rp1159
tp1160
asg1
((dp1161
g3
g4
(g5
g6
Ntp1162
Rp1163
(lp1164
g863
ag448
absg12
I1
sg13
I2
sg14
((lp1165
F1.0
aF1.0
a(lp1166
I0
aI1
atp1167
stp1168
Rp1169
(lp1170
(g399
g22
(g26
S'\xff\xff\xff\xff\xff\xff\xef?'
p1171
tp1172
Rp1173
tp1174
a(g439
g22
(g26
S"\r\xc6x'p\xbd\xef?"
p1175
tp1176
Rp1177
tp1178
a(g878
g22
(g26
S'\xd0Y\x1dVz\xb9\xef?'
p1179
tp1180
Rp1181
tp1182
a(g404
g22
(g26
S'\xc1\xfbS\xb3k\xb1\xef?'
p1183
tp1184
Rp1185
tp1186
a(g419
g22
(g26
S'\xd5\xd0~\xc5\xe3\xa5\xef?'
p1187
tp1188
Rp1189
tp1190
a(g891
g22
(g26
S'\x97:\xf2>\xd1\x9a\xef?'
p1191
tp1192
Rp1193
tp1194
a(g364
g22
(g26
S'\x8b\x9f\x9f\xb4\xda\x7f\xef?'
p1195
tp1196
Rp1197
tp1198
a(g394
g22
(g26
S'9\xe2\x96\xda\x91q\xef?'
p1199
tp1200
Rp1201
tp1202
a(g424
g22
(g26
S'%\xcb\x9c\xa9\xccn\xef?'
p1203
tp1204
Rp1205
tp1206
a(g409
g22
(g26
S'\xa2Lf\x0b\x10k\xef?'
p1207
tp1208
Rp1209
tp1210
a(g389
g22
(g26
S'3\xcb\x921\xf3e\xef?'
p1211
tp1212
Rp1213
tp1214
a(g379
g22
(g26
S'Vg\xf3\x8a\xffa\xef?'
p1215
tp1216
Rp1217
tp1218
a(g369
g22
(g26
S'\rjn\xfc\xac`\xef?'
p1219
tp1220
Rp1221
tp1222
a(g414
g22
(g26
S'J<\xf1R\xf5Z\xef?'
p1223
tp1224
Rp1225
tp1226
a(g928
g22
(g26
S'\x1e\xd07\xc89W\xef?'
p1227
tp1228
Rp1229
tp1230
a(g429
g22
(g26
S'c\xcfV\xb0\x1eU\xef?'
p1231
tp1232
Rp1233
tp1234
a(g384
g22
(g26
S'\xb4\xadfe\xfc@\xef?'
p1235
tp1236
Rp1237
tp1238
a(g359
g22
(g26
S'\x0fi\xe8l^4\xef?'
p1239
tp1240
Rp1241
tp1242
a(g354
g22
(g26
S'\x89[\xe2\x83\xdd&\xef?'
p1243
tp1244
Rp1245
tp1246
a(g949
g22
(g26
S'\xd3\xc5\x1fO\xa5!\xef?'
p1247
tp1248
Rp1249
tp1250
asg1
((dp1251
g3
g4
(g5
g6
Ntp1252
Rp1253
(lp1254
g132
ag337
absg12
I1
sg13
I2
sg14
((lp1255
F1.0
aF1.0
a(lp1256
I0
aI1
atp1257
stp1258
Rp1259
(lp1260
(g143
g22
(g26
S'\xfa\xff\xff\xff\xff\xff\xef?'
p1261
tp1262
Rp1263
tp1264
a(g195
g22
(g26
S'\x88\xe1)\xf3\xd4\xbb\xee?'
p1265
tp1266
Rp1267
tp1268
a(g209
g22
(g26
S'\xe6\x15\xc4\x97\x82\xa5\xee?'
p1269
tp1270
Rp1271
tp1272
a(g467
g22
(g26
S'\xcc`\xcb\x0c0\x86\xee?'
p1273
tp1274
Rp1275
tp1276
a(g472
g22
(g26
S'\xbe\xbcK\x83\xdbx\xee?'
p1277
tp1278
Rp1279
tp1280
a(g214
g22
(g26
S'\xe4}\xado"J\xee?'
p1281
tp1282
Rp1283
tp1284
a(g224
g22
(g26
S'\x13|$:\\%\xee?'
p1285
tp1286
Rp1287
tp1288
a(g485
g22
(g26
S'&[\xf64=\x07\xee?'
p1289
tp1290
Rp1291
tp1292
a(g204
g22
(g26
S'\x11\x8a\xbcL1\x05\xee?'
p1293
tp1294
Rp1295
tp1296
a(g494
g22
(g26
S'\xf6Y\x94\x9e^\x04\xee?'
p1297
tp1298
Rp1299
tp1300
a(g219
g22
(g26
S'"\x10\x0e\\0\xf7\xed?'
p1301
tp1302
Rp1303
tp1304
a(g503
g22
(g26
S'c\xf5\x9fA\xe0\xdd\xed?'
p1305
tp1306
Rp1307
tp1308
a(g508
g22
(g26
S'\xf3s\xd1r\xfe\xcc\xed?'
p1309
tp1310
Rp1311
tp1312
a(g513
g22
(g26
S'=\xd5\n\x10\x17\xbe\xed?'
p1313
tp1314
Rp1315
tp1316
a(g518
g22
(g26
S'\xe3ny\xf9u\xb3\xed?'
p1317
tp1318
Rp1319
tp1320
a(g523
g22
(g26
S'\x0eC\x96\x9d\xc5\xa0\xed?'
p1321
tp1322
Rp1323
tp1324
a(g528
g22
(g26
S'eQ\xba\xff\xea\x81\xed?'
p1325
tp1326
Rp1327
tp1328
a(g190
g22
(g26
S'C\x00=\xd6\x1e{\xed?'
p1329
tp1330
Rp1331
tp1332
a(g537
g22
(g26
S'\xaa"!gcv\xed?'
p1333
tp1334
Rp1335
tp1336
a(g542
g22
(g26
S'V\xb3\xdd\xbf\xd2]\xed?'
p1337
tp1338
Rp1339
tp1340
asg1
((dp1341
g3
g4
(g5
g6
Ntp1342
Rp1343
(lp1344
g10
ag1056
absg12
I1
sg13
I2
sg14
((lp1345
F1.0
aF1.0
a(lp1346
I0
aI1
atp1347
stp1348
Rp1349
(lp1350
(g63
g22
(g26
S'tb\xa0\x8d\xa6\xfb\xf2?'
p1351
tp1352
Rp1353
tp1354
a(g48
g22
(g26
S'\xeb\\kP1\x0e\xf2?'
p1355
tp1356
Rp1357
tp1358
a(g1068
g22
(g26
S'\x9a\x99J\xfa7r\xf1?'
p1359
tp1360
Rp1361
tp1362
a(g1063
g22
(g26
S'\x1a\xd7\xb2\x85\r\x14\xf1?'
p1363
tp1364
Rp1365
tp1366
a(g43
g22
(g26
S'\x19\xd7\xb2\x85\r\x14\xf1?'
p1367
tp1368
Rp1369
tp1370
a(g21
g22
(g26
S'\xef^\t\xe9\xfe\x0c\xf1?'
p1371
tp1372
Rp1373
tp1374
a(g1078
g22
(g26
S'd\xfd\xde\xd9W\x8e\xf0?'
p1375
tp1376
Rp1377
tp1378
a(g1083
g22
(g26
S'\x9dr\xccX\xf8\x8b\xf0?'
p1379
tp1380
Rp1381
tp1382
a(g1108
g22
(g26
S'1\x04\xbd3Bx\xf0?'
p1383
tp1384
Rp1385
tp1386
a(g813
g22
(g26
S'_\xad\xd7\x84\x07r\xf0?'
p1387
tp1388
Rp1389
tp1390
a(g1093
g22
(g26
S'\x99\xbf\xc0\xe8\x1ee\xf0?'
p1391
tp1392
Rp1393
tp1394
a(g1073
g22
(g26
S'R\xe9\xfa\x9d\n^\xf0?'
p1395
tp1396
Rp1397
tp1398
a(g73
g22
(g26
S'\xdaO\xe0\xefK"\xf0?'
p1399
tp1400
Rp1401
tp1402
a(g68
g22
(g26
S'\x0bc\x14CT\x13\xf0?'
p1403
tp1404
Rp1405
tp1406
a(g58
g22
(g26
S'e\x83\xe5<,\n\xf0?'
p1407
tp1408
Rp1409
tp1410
a(g83
g22
(g26
S'ed\xa9\xfd\xdf\xf9\xef?'
p1411
tp1412
Rp1413
tp1414
a(g103
g22
(g26
S'lo\xb1&\x8e\xe4\xef?'
p1415
tp1416
Rp1417
tp1418
a(g1088
g22
(g26
S']z-\x1f\x91\xa8\xef?'
p1419
tp1420
Rp1421
tp1422
a(g808
g22
(g26
S'\xc8Y\xcf\ng\xa5\xef?'
p1423
tp1424
Rp1425
tp1426
a(g53
g22
(g26
S'\x94sh\xe8\xc7\x88\xef?'
p1427
tp1428
Rp1429
tp1430
asg1
((dp1431
g3
g4
(g5
g6
Ntp1432
Rp1433
(lp1434
g337
ag11
absg12
I1
sg13
I2
sg14
((lp1435
F1.0
aF1.0
a(lp1436
I0
aI1
atp1437
stp1438
Rp1439
(lp1440
(g38
g22
(g26
S'\x03\x00\x00\x00\x00\x00\xf0?'
p1441
tp1442
Rp1443
tp1444
a(Vkid
p1445
g22
(g26
S'\xe1\x10\xaa\xce\x02J\xec?'
p1446
tp1447
Rp1448
tp1449
a(Vbaby
p1450
g22
(g26
S'\xe2\x91\xdc\xa1\xbaH\xeb?'
p1451
tp1452
Rp1453
tp1454
a(Vbecome parent
p1455
g22
(g26
S'\xe5\xc6\xe4\xa6IE\xea?'
p1456
tp1457
Rp1458
tp1459
a(g88
g22
(g26
S'\xea\xd17\xe9=\xa4\xe9?'
p1460
tp1461
Rp1462
tp1463
a(Vminor
p1464
g22
(g26
S'F\xdf\x08\x98X\x7f\xe9?'
p1465
tp1466
Rp1467
tp1468
a(Vsmall child
p1469
g22
(g26
S'\x8dV\xfaa\xacn\xe9?'
p1470
tp1471
Rp1472
tp1473
a(Vraise child
p1474
g22
(g26
S'l@nO\xb1\xaa\xe8?'
p1475
tp1476
Rp1477
tp1478
a(Vfoster kid
p1479
g22
(g26
S'\xa5x\xd6\xc5b\x84\xe8?'
p1480
tp1481
Rp1482
tp1483
a(Vcollector
p1484
g22
(g26
S'U;78>M\xe8?'
p1485
tp1486
Rp1487
tp1488
a(Vlittle girl
p1489
g22
(g26
S'E;A\xea\xaaI\xe8?'
p1490
tp1491
Rp1492
tp1493
a(Voffspring
p1494
g22
(g26
S'\xd9$=\xca\x00_\xe7?'
p1495
tp1496
Rp1497
tp1498
a(Vyoung child
p1499
g22
(g26
S'\xefv\x94\xde\x9eT\xe7?'
p1500
tp1501
Rp1502
tp1503
a(Vcarry baby
p1504
g22
(g26
S'\x8b\x8e\x02\xb5U\x1d\xe7?'
p1505
tp1506
Rp1507
tp1508
a(Vyoung person
p1509
g22
(g26
S'\x8c\x80?X\xcf\xf6\xe6?'
p1510
tp1511
Rp1512
tp1513
a(Vmost child
p1514
g22
(g26
S'\x1e\xbb~4\t\xf6\xe6?'
p1515
tp1516
Rp1517
tp1518
a(Vprogeny
p1519
g22
(g26
S'w\xd84\xee\xbb\xe5\xe6?'
p1520
tp1521
Rp1522
tp1523
a(Vlittle child
p1524
g22
(g26
S'\xec[\xfb_\x7fw\xe6?'
p1525
tp1526
Rp1527
tp1528
a(Vlad
p1529
g22
(g26
S'&\x92\xf4.}t\xe6?'
p1530
tp1531
Rp1532
tp1533
a(Vorphan
p1534
g22
(g26
S'\x19{4u\xe6s\xe6?'
p1535
tp1536
Rp1537
tp1538
asg1
((dp1539
g3
g4
(g5
g6
Ntp1540
Rp1541
(lp1542
g1056
ag448
absg12
I1
sg13
I2
sg14
((lp1543
F1.0
aF1.0
a(lp1544
I0
aI1
atp1545
stp1546
Rp1547
(lp1548
(g1063
g22
(g26
S'\xfc\xff\xff\xff\xff\xff\xef?'
p1549
tp1550
Rp1551
tp1552
a(g1068
g22
(g26
S'\x8e\x1e\xac\xd9\x95\x06\xef?'
p1553
tp1554
Rp1555
tp1556
a(g1073
g22
(g26
S'g\x8br3u\xf5\xee?'
p1557
tp1558
Rp1559
tp1560
a(g1078
g22
(g26
S'\x1dz\xb8\x81\xbd\xb9\xee?'
p1561
tp1562
Rp1563
tp1564
a(g1083
g22
(g26
S'\x1dF\x8d\x03\x80|\xee?'
p1565
tp1566
Rp1567
tp1568
a(g1088
g22
(g26
S'\xdc\xc4\xe1\tn]\xee?'
p1569
tp1570
Rp1571
tp1572
a(g1093
g22
(g26
S'ruH\xa2f\x16\xee?'
p1573
tp1574
Rp1575
tp1576
a(g1098
g22
(g26
S'\xac\xb3\xc1]\xe6\t\xee?'
p1577
tp1578
Rp1579
tp1580
a(g1103
g22
(g26
S'-\x11\xc3\x13d\xe9\xed?'
p1581
tp1582
Rp1583
tp1584
a(g1108
g22
(g26
S'}\xdc\xae\x81K~\xed?'
p1585
tp1586
Rp1587
tp1588
a(g1113
g22
(g26
S'\xa7\x87\x11N\xe8T\xed?'
p1589
tp1590
Rp1591
tp1592
a(g1118
g22
(g26
S'\xad\xee;\x07\x0c4\xed?'
p1593
tp1594
Rp1595
tp1596
a(g808
g22
(g26
S'-\x87\xf9~K\xd1\xec?'
p1597
tp1598
Rp1599
tp1600
a(g1127
g22
(g26
S'!dP\xe20\x7f\xec?'
p1601
tp1602
Rp1603
tp1604
a(g1132
g22
(g26
S'_\xcef\x14\x8bC\xec?'
p1605
tp1606
Rp1607
tp1608
a(g1137
g22
(g26
S'k,\xbf\xb1\xae>\xec?'
p1609
tp1610
Rp1611
tp1612
a(g928
g22
(g26
S'Ot^Y\xea.\xec?'
p1613
tp1614
Rp1615
tp1616
a(g1146
g22
(g26
S'\xf7)\xc8wK-\xec?'
p1617
tp1618
Rp1619
tp1620
a(g1151
g22
(g26
S' \xff\xb3r\xb2+\xec?'
p1621
tp1622
Rp1623
tp1624
a(g1156
g22
(g26
S'\x83\xa5RK\xba\x1c\xec?'
p1625
tp1626
Rp1627
tp1628
asg1
((dp1629
g3
g4
(g5
g6
Ntp1630
Rp1631
(lp1632
g337
ag233
absg12
I1
sg13
I2
sg14
((lp1633
F1.0
aF1.0
a(lp1634
I0
aI1
atp1635
stp1636
Rp1637
(lp1638
(g249
g22
(g26
S'\x00\x00\x00\x00\x00\x00\xf0?'
p1639
tp1640
Rp1641
tp1642
a(Vmake friend
p1643
g22
(g26
S'\x8f\xf4fR\xd84\xe8?'
p1644
tp1645
Rp1646
tp1647
a(Vsocial
p1648
g22
(g26
S'\xfd\xee{\xf6\xec\xa0\xe7?'
p1649
tp1650
Rp1651
tp1652
a(Vfriendship
p1653
g22
(g26
S'\xeb8\xad\x83\xbf\x89\xe7?'
p1654
tp1655
Rp1656
tp1657
a(Vsocialize
p1658
g22
(g26
S'\xb9^~\xbd\xb2S\xe7?'
p1659
tp1660
Rp1661
tp1662
a(Vamiable
p1663
g22
(g26
S'\xa1\xab-\x9fT0\xe7?'
p1664
tp1665
Rp1666
tp1667
a(Vsay goodbye
p1668
g22
(g26
S'\xa8!\x19\x9e\xd4 \xe7?'
p1669
tp1670
Rp1671
tp1672
a(Vcall friend phone
p1673
g22
(g26
S'1!\xcf\x866\x05\xe7?'
p1674
tp1675
Rp1676
tp1677
a(Vencourage
p1678
g22
(g26
S'\xf1\xeb`\xc4\x0b\x8b\xe6?'
p1679
tp1680
Rp1681
tp1682
a(Vmeet another person
p1683
g22
(g26
S'\x06a~gf\x0c\xe6?'
p1684
tp1685
Rp1686
tp1687
a(Vsocialis
p1688
g22
(g26
S'\xdb\xceS\xa0t\xf6\xe5?'
p1689
tp1690
Rp1691
tp1692
a(Vlonely
p1693
g22
(g26
S'\xe9\xf5\xbeg\xb3\xe5\xe5?'
p1694
tp1695
Rp1696
tp1697
a(Vbuddy
p1698
g22
(g26
S'6\x9e\x11\x90\xbb\xd4\xe5?'
p1699
tp1700
Rp1701
tp1702
a(Vsocial interaction
p1703
g22
(g26
S'*\ru\\K\xb7\xe5?'
p1704
tp1705
Rp1706
tp1707
a(Vpart company
p1708
g22
(g26
S'7$\xea\xc7\xafX\xe5?'
p1709
tp1710
Rp1711
tp1712
a(Vbring gift
p1713
g22
(g26
S'\xd3= \xa2\xa6\xf4\xe4?'
p1714
tp1715
Rp1716
tp1717
a(Vhuman contact
p1718
g22
(g26
S'\x9d\xbe\x12w\xf4\xe1\xe4?'
p1719
tp1720
Rp1721
tp1722
a(Vtalk other person
p1723
g22
(g26
S'\xedaiLw\xd5\xe4?'
p1724
tp1725
Rp1726
tp1727
a(Vget together friend
p1728
g22
(g26
S'n#dJ\xc9\xc9\xe4?'
p1729
tp1730
Rp1731
tp1732
a(Vpal
p1733
g22
(g26
S'J\xea\xb8L?\xb7\xe4?'
p1734
tp1735
Rp1736
tp1737
asg1
((dp1738
g3
g4
(g5
g6
Ntp1739
Rp1740
(lp1741
g11
ag448
absg12
I1
sg13
I2
sg14
((lp1742
F1.0
aF1.0
a(lp1743
I0
aI1
atp1744
stp1745
Rp1746
(lp1747
(g38
g22
(g26
S'\x03\x00\x00\x00\x00\x00\xf0?'
p1748
tp1749
Rp1750
tp1751
a(g1445
g22
(g26
S'\xe1\x10\xaa\xce\x02J\xec?'
p1752
tp1753
Rp1754
tp1755
a(g1450
g22
(g26
S'\xe2\x91\xdc\xa1\xbaH\xeb?'
p1756
tp1757
Rp1758
tp1759
a(g1455
g22
(g26
S'\xe5\xc6\xe4\xa6IE\xea?'
p1760
tp1761
Rp1762
tp1763
a(g88
g22
(g26
S'\xea\xd17\xe9=\xa4\xe9?'
p1764
tp1765
Rp1766
tp1767
a(g1464
g22
(g26
S'F\xdf\x08\x98X\x7f\xe9?'
p1768
tp1769
Rp1770
tp1771
a(g1469
g22
(g26
S'\x8dV\xfaa\xacn\xe9?'
p1772
tp1773
Rp1774
tp1775
a(g1474
g22
(g26
S'l@nO\xb1\xaa\xe8?'
p1776
tp1777
Rp1778
tp1779
a(g1479
g22
(g26
S'\xa5x\xd6\xc5b\x84\xe8?'
p1780
tp1781
Rp1782
tp1783
a(g1484
g22
(g26
S'U;78>M\xe8?'
p1784
tp1785
Rp1786
tp1787
a(g1489
g22
(g26
S'E;A\xea\xaaI\xe8?'
p1788
tp1789
Rp1790
tp1791
a(g1494
g22
(g26
S'\xd9$=\xca\x00_\xe7?'
p1792
tp1793
Rp1794
tp1795
a(g1499
g22
(g26
S'\xefv\x94\xde\x9eT\xe7?'
p1796
tp1797
Rp1798
tp1799
a(g1504
g22
(g26
S'\x8b\x8e\x02\xb5U\x1d\xe7?'
p1800
tp1801
Rp1802
tp1803
a(g1509
g22
(g26
S'\x8c\x80?X\xcf\xf6\xe6?'
p1804
tp1805
Rp1806
tp1807
a(g1514
g22
(g26
S'\x1e\xbb~4\t\xf6\xe6?'
p1808
tp1809
Rp1810
tp1811
a(g1519
g22
(g26
S'w\xd84\xee\xbb\xe5\xe6?'
p1812
tp1813
Rp1814
tp1815
a(g1524
g22
(g26
S'\xec[\xfb_\x7fw\xe6?'
p1816
tp1817
Rp1818
tp1819
a(g1529
g22
(g26
S'&\x92\xf4.}t\xe6?'
p1820
tp1821
Rp1822
tp1823
a(g1534
g22
(g26
S'\x19{4u\xe6s\xe6?'
p1824
tp1825
Rp1826
tp1827
asg1
((dp1828
g3
g4
(g5
g6
Ntp1829
Rp1830
(lp1831
g658
ag10
absg12
I1
sg13
I2
sg14
((lp1832
F1.0
aF1.0
a(lp1833
I0
aI1
atp1834
stp1835
Rp1836
(lp1837
(Vhappy occasion
p1838
g22
(g26
S'\x17W\x95\xbc\xa6\xce\xf2?'
p1839
tp1840
Rp1841
tp1842
a(Vhappy event
p1843
g22
(g26
S'Sd\xd0\xb9\xde\xf3\xf1?'
p1844
tp1845
Rp1846
tp1847
a(g118
g22
(g26
S'z\xdd\xcf\x83\xe5\x96\xf1?'
p1848
tp1849
Rp1850
tp1851
a(g665
g22
(g26
S'Z\xa7.\xaf%\xef\xf0?'
p1852
tp1853
Rp1854
tp1855
a(g43
g22
(g26
S'U\xa7.\xaf%\xef\xf0?'
p1856
tp1857
Rp1858
tp1859
a(g83
g22
(g26
S'\x13\x84\x84\xc7\xf2\xe4\xf0?'
p1860
tp1861
Rp1862
tp1863
a(g78
g22
(g26
S'{\x14\xf4\xb2Ah\xf0?'
p1864
tp1865
Rp1866
tp1867
a(Voccurrence
p1868
g22
(g26
S"vi'\x01\xdd@\xf0?"
p1869
tp1870
Rp1871
tp1872
a(g93
g22
(g26
S'\xef\xce\xc1\xf8?0\xf0?'
p1873
tp1874
Rp1875
tp1876
a(g68
g22
(g26
S"('4\x84_\xe3\xef?"
p1877
tp1878
Rp1879
tp1880
a(Vwed
p1881
g22
(g26
S'\xb28a2}\xab\xef?'
p1882
tp1883
Rp1884
tp1885
a(g725
g22
(g26
S'^\xddE\x99@\xa8\xef?'
p1886
tp1887
Rp1888
tp1889
a(g113
g22
(g26
S'\xcf\xacv\xdb\x99\x95\xef?'
p1890
tp1891
Rp1892
tp1893
a(g73
g22
(g26
S'\x1a\x0f}\xf8\xe4\x89\xef?'
p1894
tp1895
Rp1896
tp1897
a(g1038
g22
(g26
S'\xa3\xf3\xb8Qqm\xef?'
p1898
tp1899
Rp1900
tp1901
a(Voccasion
p1902
g22
(g26
S'\x02\xdd\x1a\xbb\x05c\xef?'
p1903
tp1904
Rp1905
tp1906
a(g185
g22
(g26
S'\xb7\x02\xd6\xa6\xcdT\xef?'
p1907
tp1908
Rp1909
tp1910
a(g103
g22
(g26
S'n\xd8[\xdf\xfdH\xef?'
p1911
tp1912
Rp1913
tp1914
a(g58
g22
(g26
S'_\xd8\xcf\xe4~+\xef?'
p1915
tp1916
Rp1917
tp1918
a(Vreligious event
p1919
g22
(g26
S'\xc4{\xc7\xe1\xd4\x17\xef?'
p1920
tp1921
Rp1922
tp1923
asg1
((dp1924
g3
g4
(g5
g6
Ntp1925
Rp1926
(lp1927
g233
ag448
absg12
I1
sg13
I2
sg14
((lp1928
F1.0
aF1.0
a(lp1929
I0
aI1
atp1930
stp1931
Rp1932
(lp1933
(g249
g22
(g26
S'\x00\x00\x00\x00\x00\x00\xf0?'
p1934
tp1935
Rp1936
tp1937
a(g1643
g22
(g26
S'\x8f\xf4fR\xd84\xe8?'
p1938
tp1939
Rp1940
tp1941
a(g1648
g22
(g26
S'\xfd\xee{\xf6\xec\xa0\xe7?'
p1942
tp1943
Rp1944
tp1945
a(g1653
g22
(g26
S'\xeb8\xad\x83\xbf\x89\xe7?'
p1946
tp1947
Rp1948
tp1949
a(g1658
g22
(g26
S'\xb9^~\xbd\xb2S\xe7?'
p1950
tp1951
Rp1952
tp1953
a(g1663
g22
(g26
S'\xa1\xab-\x9fT0\xe7?'
p1954
tp1955
Rp1956
tp1957
a(g1668
g22
(g26
S'\xa8!\x19\x9e\xd4 \xe7?'
p1958
tp1959
Rp1960
tp1961
a(g1673
g22
(g26
S'1!\xcf\x866\x05\xe7?'
p1962
tp1963
Rp1964
tp1965
a(g1678
g22
(g26
S'\xf1\xeb`\xc4\x0b\x8b\xe6?'
p1966
tp1967
Rp1968
tp1969
a(g1683
g22
(g26
S'\x06a~gf\x0c\xe6?'
p1970
tp1971
Rp1972
tp1973
a(g1688
g22
(g26
S'\xdb\xceS\xa0t\xf6\xe5?'
p1974
tp1975
Rp1976
tp1977
a(g1693
g22
(g26
S'\xe9\xf5\xbeg\xb3\xe5\xe5?'
p1978
tp1979
Rp1980
tp1981
a(g1698
g22
(g26
S'6\x9e\x11\x90\xbb\xd4\xe5?'
p1982
tp1983
Rp1984
tp1985
a(g1703
g22
(g26
S'*\ru\\K\xb7\xe5?'
p1986
tp1987
Rp1988
tp1989
a(g1708
g22
(g26
S'7$\xea\xc7\xafX\xe5?'
p1990
tp1991
Rp1992
tp1993
a(g1713
g22
(g26
S'\xd3= \xa2\xa6\xf4\xe4?'
p1994
tp1995
Rp1996
tp1997
a(g1718
g22
(g26
S'\x9d\xbe\x12w\xf4\xe1\xe4?'
p1998
tp1999
Rp2000
tp2001
a(g1723
g22
(g26
S'\xedaiLw\xd5\xe4?'
p2002
tp2003
Rp2004
tp2005
a(g1728
g22
(g26
S'n#dJ\xc9\xc9\xe4?'
p2006
tp2007
Rp2008
tp2009
a(g1733
g22
(g26
S'J\xea\xb8L?\xb7\xe4?'
p2010
tp2011
Rp2012
tp2013
asg1
((dp2014
g3
g4
(g5
g6
Ntp2015
Rp2016
(lp2017
g337
ag551
absg12
I1
sg13
I2
sg14
((lp2018
F1.0
aF1.0
a(lp2019
I0
aI1
atp2020
stp2021
Rp2022
(lp2023
(g558
g22
(g26
S'\x01\x00\x00\x00\x00\x00\xf0?'
p2024
tp2025
Rp2026
tp2027
a(g607
g22
(g26
S'\x1fu\xf0@\xa1\xc7\xee?'
p2028
tp2029
Rp2030
tp2031
a(g612
g22
(g26
S'\xef\x88\xd7\x98l\x90\xee?'
p2032
tp2033
Rp2034
tp2035
a(g602
g22
(g26
S'\xfa\x05@\x04\x08i\xee?'
p2036
tp2037
Rp2038
tp2039
a(Vinstructor
p2040
g22
(g26
S'\xe3\xf2D\x1b\xf7\x0b\xee?'
p2041
tp2042
Rp2043
tp2044
a(g640
g22
(g26
S'm}y\xd2p\xba\xed?'
p2045
tp2046
Rp2047
tp2048
a(Vtime test
p2049
g22
(g26
S'\xc2\xd61\x91\x89h\xed?'
p2050
tp2051
Rp2052
tp2053
a(g592
g22
(g26
S'\x06\xefpv\xc1P\xed?'
p2054
tp2055
Rp2056
tp2057
a(g597
g22
(g26
S'\xef1\xd5\x02?O\xed?'
p2058
tp2059
Rp2060
tp2061
a(Vlecturer
p2062
g22
(g26
S'9L\xd42\xe8B\xed?'
p2063
tp2064
Rp2065
tp2066
a(Vtutor
p2067
g22
(g26
S'P9\xe7C\x0f=\xed?'
p2068
tp2069
Rp2070
tp2071
a(Vchalkboard
p2072
g22
(g26
S'\xb3\x9aL\xc5\xc8\x1f\xed?'
p2073
tp2074
Rp2075
tp2076
a(g587
g22
(g26
S'1\xb0\xd1\xf9\xc9\x1e\xed?'
p2077
tp2078
Rp2079
tp2080
a(g567
g22
(g26
S'\xaa\x86\x03\xc3\xdf\xff\xec?'
p2081
tp2082
Rp2083
tp2084
a(Vschool system
p2085
g22
(g26
S'\xde\xd1\x08\x02/\xf5\xec?'
p2086
tp2087
Rp2088
tp2089
a(g577
g22
(g26
S'\x8e \xc2kZ\xea\xec?'
p2090
tp2091
Rp2092
tp2093
a(Vlesson
p2094
g22
(g26
S'zQ\xdc\xff\x98\xdb\xec?'
p2095
tp2096
Rp2097
tp2098
a(g582
g22
(g26
S'\xd8\x98\xe4\x00\xe8\xbb\xec?'
p2099
tp2100
Rp2101
tp2102
a(g649
g22
(g26
S'\xdbH!\x00\xe4\xb1\xec?'
p2103
tp2104
Rp2105
tp2106
a(Veducational facility
p2107
g22
(g26
S'\xa6\x8b^A\xef\xad\xec?'
p2108
tp2109
Rp2110
tp2111
asg1
((dp2112
g3
g4
(g5
g6
Ntp2113
Rp2114
(lp2115
g658
ag448
absg12
I1
sg13
I2
sg14
((lp2116
F1.0
aF1.0
a(lp2117
I0
aI1
atp2118
stp2119
Rp2120
(lp2121
(g665
g22
(g26
S'\x00\x00\x00\x00\x00\x00\xf0?'
p2122
tp2123
Rp2124
tp2125
a(g670
g22
(g26
S'\xc6HeQx\xc0\xe9?'
p2126
tp2127
Rp2128
tp2129
a(g675
g22
(g26
S'\xb3u\x00.\xaa\xb2\xe8?'
p2130
tp2131
Rp2132
tp2133
a(g680
g22
(g26
S'\xb1\x10j\xb5SC\xe8?'
p2134
tp2135
Rp2136
tp2137
a(g685
g22
(g26
S'\xcaF\xbb\xc2W\x1c\xe8?'
p2138
tp2139
Rp2140
tp2141
a(g690
g22
(g26
S'\xa77\x871\xac\x0e\xe8?'
p2142
tp2143
Rp2144
tp2145
a(g695
g22
(g26
S'\xf7\x95<\xa9o\x00\xe8?'
p2146
tp2147
Rp2148
tp2149
a(g700
g22
(g26
S'\xcc\x88\xb9\xcfs\xe8\xe7?'
p2150
tp2151
Rp2152
tp2153
a(g705
g22
(g26
S'\xa9\xa0S\x8c\x87\xda\xe7?'
p2154
tp2155
Rp2156
tp2157
a(g710
g22
(g26
S'\xe2\xcc\x11H\xc1\xb0\xe7?'
p2158
tp2159
Rp2160
tp2161
a(g715
g22
(g26
S'\xdf\x12\n\xf6B\x8d\xe7?'
p2162
tp2163
Rp2164
tp2165
a(g720
g22
(g26
S'T\xb1\xa4\xa6 Z\xe7?'
p2166
tp2167
Rp2168
tp2169
a(g725
g22
(g26
S'\x0f \x866\xf5K\xe7?'
p2170
tp2171
Rp2172
tp2173
a(g730
g22
(g26
S'\xf3\\jx\x8b)\xe7?'
p2174
tp2175
Rp2176
tp2177
a(g735
g22
(g26
S'\x8dQ\xacO\x9a\xdc\xe6?'
p2178
tp2179
Rp2180
tp2181
a(g740
g22
(g26
S'p*\xb5\xd5\x93\xd9\xe6?'
p2182
tp2183
Rp2184
tp2185
a(g745
g22
(g26
S'\xc9^@dr\xd5\xe6?'
p2186
tp2187
Rp2188
tp2189
a(g750
g22
(g26
S'\xd2\xf9\x96%l\xab\xe6?'
p2190
tp2191
Rp2192
tp2193
a(g755
g22
(g26
S'2v\xa3\xbc:\x9b\xe6?'
p2194
tp2195
Rp2196
tp2197
a(g760
g22
(g26
S'\x13\xf7\xfcc]\x95\xe6?'
p2198
tp2199
Rp2200
tp2201
asg1
((dp2202
g3
g4
(g5
g6
Ntp2203
Rp2204
(lp2205
g863
ag10
absg12
I1
sg13
I2
sg14
((lp2206
F1.0
aF1.0
a(lp2207
I0
aI1
atp2208
stp2209
Rp2210
(lp2211
(g63
g22
(g26
S'\xd87x\xbe\x1b\x14\xf4?'
p2212
tp2213
Rp2214
tp2215
a(g779
g22
(g26
S'\x108\xc5\x060\xf0\xf0?'
p2216
tp2217
Rp2218
tp2219
a(g808
g22
(g26
S'h\x0c\x9a5\xc4\x93\xf0?'
p2220
tp2221
Rp2222
tp2223
a(g419
g22
(g26
S'\xf7\x9f\xc7z\xca\x91\xf0?'
p2224
tp2225
Rp2226
tp2227
a(g399
g22
(g26
S'n\x00&>\x81w\xf0?'
p2228
tp2229
Rp2230
tp2231
a(g43
g22
(g26
S'j\x00&>\x81w\xf0?'
p2232
tp2233
Rp2234
tp2235
a(g364
g22
(g26
S'\x1a\x98\x05\x9a\xfbr\xf0?'
p2236
tp2237
Rp2238
tp2239
a(g846
g22
(g26
S'\xf9\xd793bm\xf0?'
p2240
tp2241
Rp2242
tp2243
a(g379
g22
(g26
S'Yi\x0e\xde\xa2f\xf0?'
p2244
tp2245
Rp2246
tp2247
a(g1132
g22
(g26
S'\xa5*\xd8\xd5\xb5U\xf0?'
p2248
tp2249
Rp2250
tp2251
a(g429
g22
(g26
S'\xdc\x7f\xe7\x8b\xcaP\xf0?'
p2252
tp2253
Rp2254
tp2255
a(g394
g22
(g26
S'\xe8\xfd\t\r\xafH\xf0?'
p2256
tp2257
Rp2258
tp2259
a(g439
g22
(g26
S'\x07\x04\xc0\xc5E?\xf0?'
p2260
tp2261
Rp2262
tp2263
a(g424
g22
(g26
S'\x15m\xbd|F8\xf0?'
p2264
tp2265
Rp2266
tp2267
a(g404
g22
(g26
S'\xb9\x82\x98\x18\xf9*\xf0?'
p2268
tp2269
Rp2270
tp2271
a(g349
g22
(g26
S'\xbc\x8a\xa2\x0bW\x1e\xf0?'
p2272
tp2273
Rp2274
tp2275
a(g878
g22
(g26
S'\xce\x15\xf6\x0f\xdd\x1b\xf0?'
p2276
tp2277
Rp2278
tp2279
a(g369
g22
(g26
S'\rW0\xb0N\x1a\xf0?'
p2280
tp2281
Rp2282
tp2283
a(g354
g22
(g26
S'\x01\x04\x05\x05\xe4\x0e\xf0?'
p2284
tp2285
Rp2286
tp2287
a(g891
g22
(g26
S'\xb1 \xb8\x9c\x9b\xfb\xef?'
p2288
tp2289
Rp2290
tp2291
asg1
((dp2292
g3
g4
(g5
g6
Ntp2293
Rp2294
(lp2295
g958
ag337
absg12
I1
sg13
I2
sg14
((lp2296
F1.0
aF1.0
a(lp2297
I0
aI1
atp2298
stp2299
Rp2300
(lp2301
(g977
g22
(g26
S'\x00\x00\x00\x00\x00\x00\xf0?'
p2302
tp2303
Rp2304
tp2305
a(Vrespect
p2306
g22
(g26
S'\xc9\xcfBT\xe6\xe6\xe5?'
p2307
tp2308
Rp2309
tp2310
a(Vhigh esteem
p2311
g22
(g26
S'\x83sC\r~\x00\xe5?'
p2312
tp2313
Rp2314
tp2315
a(Vhonour
p2316
g22
(g26
S'\xbb\xdd\x13\xdc>\xb2\xe2?'
p2317
tp2318
Rp2319
tp2320
a(Vcharity
p2321
g22
(g26
S'\xa4\x81\xb7\x02=|\xe2?'
p2322
tp2323
Rp2324
tp2325
a(Vproper
p2326
g22
(g26
S'\xf9\xdc\xcc\xe7\x7fo\xe2?'
p2327
tp2328
Rp2329
tp2330
a(Velderly
p2331
g22
(g26
S'\xd7\xe1f\xed\x7f^\xe2?'
p2332
tp2333
Rp2334
tp2335
a(Vbridesmaid
p2336
g22
(g26
S'\xbe0\xd2\xb9\xb7F\xe2?'
p2337
tp2338
Rp2339
tp2340
a(Vnurture
p2341
g22
(g26
S'k+6\x95\xd7\r\xe2?'
p2342
tp2343
Rp2344
tp2345
a(Vadmire
p2346
g22
(g26
S'gJ\xbe\xaf\xb6\xd1\xe1?'
p2347
tp2348
Rp2349
tp2350
a(g78
g22
(g26
S's\xda\xd0\x85G\x9a\xe1?'
p2351
tp2352
Rp2353
tp2354
a(Vfavour
p2355
g22
(g26
S'~\xf2\xf2\xeb\xc8\x8e\xe1?'
p2356
tp2357
Rp2358
tp2359
a(Vage
p2360
g22
(g26
S'\x82\xb4`\x1eo|\xe1?'
p2361
tp2362
Rp2363
tp2364
a(Vkind
p2365
g22
(g26
S'\x16sW\xceNf\xe1?'
p2366
tp2367
Rp2368
tp2369
a(Vhonor
p2370
g22
(g26
S'\xbcx\xe0I\x7f_\xe1?'
p2371
tp2372
Rp2373
tp2374
a(Vvirtue
p2375
g22
(g26
S'h>\xeb\xa0\x13W\xe1?'
p2376
tp2377
Rp2378
tp2379
a(Vearnest
p2380
g22
(g26
S'\xdf\xe0\xd8\xfa\x17J\xe1?'
p2381
tp2382
Rp2383
tp2384
a(Vcontribution
p2385
g22
(g26
S'\x91\x81\xff\xd8\xd7\x15\xe1?'
p2386
tp2387
Rp2388
tp2389
a(Vtribute
p2390
g22
(g26
S'\xe2\xc8\x11U\xdf\x14\xe1?'
p2391
tp2392
Rp2393
tp2394
a(Vesteem
p2395
g22
(g26
S'AQS=\x94\t\xe1?'
p2396
tp2397
Rp2398
tp2399
asg1
((dp2400
g3
g4
(g5
g6
Ntp2401
Rp2402
(lp2403
g336
ag448
absg12
I1
sg13
I2
sg14
((lp2404
F1.0
aF1.0
a(lp2405
I0
aI1
atp2406
stp2407
Rp2408
(lp2409
(g344
g22
(g26
S'\xff\xff\xff\xff\xff\xff\xef?'
p2410
tp2411
Rp2412
tp2413
a(g349
g22
(g26
S'\x9c\x80\xc3\x8c\xeb\x91\xef?'
p2414
tp2415
Rp2416
tp2417
a(g354
g22
(g26
S'\xeb{\xe9k\x01k\xef?'
p2418
tp2419
Rp2420
tp2421
a(g359
g22
(g26
S'\xc5\nK?n\x12\xef?'
p2422
tp2423
Rp2424
tp2425
a(g364
g22
(g26
S'\x0e \xb2v\x03\x04\xef?'
p2426
tp2427
Rp2428
tp2429
a(g369
g22
(g26
S'\x93nS\xc9\xe0\xdd\xee?'
p2430
tp2431
Rp2432
tp2433
a(g374
g22
(g26
S'\xdc\x96\xb6\x085\xd2\xee?'
p2434
tp2435
Rp2436
tp2437
a(g379
g22
(g26
S'2\x86T\x020\xd1\xee?'
p2438
tp2439
Rp2440
tp2441
a(g384
g22
(g26
S'i\xab\xf1\x1b\xfe\xcd\xee?'
p2442
tp2443
Rp2444
tp2445
a(g389
g22
(g26
S'\xb4\xc0\xfd\xe8\x98\xb7\xee?'
p2446
tp2447
Rp2448
tp2449
a(g394
g22
(g26
S'\xbb\xe2Kw\xc5\xaa\xee?'
p2450
tp2451
Rp2452
tp2453
a(g399
g22
(g26
S'/\x8a\x86\xbc\xfe\xa0\xee?'
p2454
tp2455
Rp2456
tp2457
a(g404
g22
(g26
S"\xa7\\7'$\x9c\xee?"
p2458
tp2459
Rp2460
tp2461
a(g409
g22
(g26
S'\r\x10\xb1Z\xff\x89\xee?'
p2462
tp2463
Rp2464
tp2465
a(g414
g22
(g26
S'\x86\xb2\xa6iNn\xee?'
p2466
tp2467
Rp2468
tp2469
a(g419
g22
(g26
S'q-2P1m\xee?'
p2470
tp2471
Rp2472
tp2473
a(g424
g22
(g26
S'\xd02\x9d\x9a\xcf_\xee?'
p2474
tp2475
Rp2476
tp2477
a(g429
g22
(g26
S'\xbfDD\xed\xbeV\xee?'
p2478
tp2479
Rp2480
tp2481
a(g434
g22
(g26
S':\xdbo\xc3YR\xee?'
p2482
tp2483
Rp2484
tp2485
a(g439
g22
(g26
S'\x84SM\xe5YO\xee?'
p2486
tp2487
Rp2488
tp2489
asg1
((dp2490
g3
g4
(g5
g6
Ntp2491
Rp2492
(lp2493
g551
ag448
absg12
I1
sg13
I2
sg14
((lp2494
F1.0
aF1.0
a(lp2495
I0
aI1
atp2496
stp2497
Rp2498
(lp2499
(g558
g22
(g26
S'\x01\x00\x00\x00\x00\x00\xf0?'
p2500
tp2501
Rp2502
tp2503
a(g607
g22
(g26
S'\x1fu\xf0@\xa1\xc7\xee?'
p2504
tp2505
Rp2506
tp2507
a(g612
g22
(g26
S'\xef\x88\xd7\x98l\x90\xee?'
p2508
tp2509
Rp2510
tp2511
a(g602
g22
(g26
S'\xfa\x05@\x04\x08i\xee?'
p2512
tp2513
Rp2514
tp2515
a(g2040
g22
(g26
S'\xe3\xf2D\x1b\xf7\x0b\xee?'
p2516
tp2517
Rp2518
tp2519
a(g640
g22
(g26
S'm}y\xd2p\xba\xed?'
p2520
tp2521
Rp2522
tp2523
a(g2049
g22
(g26
S'\xc2\xd61\x91\x89h\xed?'
p2524
tp2525
Rp2526
tp2527
a(g592
g22
(g26
S'\x06\xefpv\xc1P\xed?'
p2528
tp2529
Rp2530
tp2531
a(g597
g22
(g26
S'\xef1\xd5\x02?O\xed?'
p2532
tp2533
Rp2534
tp2535
a(g2062
g22
(g26
S'9L\xd42\xe8B\xed?'
p2536
tp2537
Rp2538
tp2539
a(g2067
g22
(g26
S'P9\xe7C\x0f=\xed?'
p2540
tp2541
Rp2542
tp2543
a(g2072
g22
(g26
S'\xb3\x9aL\xc5\xc8\x1f\xed?'
p2544
tp2545
Rp2546
tp2547
a(g587
g22
(g26
S'1\xb0\xd1\xf9\xc9\x1e\xed?'
p2548
tp2549
Rp2550
tp2551
a(g567
g22
(g26
S'\xaa\x86\x03\xc3\xdf\xff\xec?'
p2552
tp2553
Rp2554
tp2555
a(g2085
g22
(g26
S'\xde\xd1\x08\x02/\xf5\xec?'
p2556
tp2557
Rp2558
tp2559
a(g577
g22
(g26
S'\x8e \xc2kZ\xea\xec?'
p2560
tp2561
Rp2562
tp2563
a(g2094
g22
(g26
S'zQ\xdc\xff\x98\xdb\xec?'
p2564
tp2565
Rp2566
tp2567
a(g582
g22
(g26
S'\xd8\x98\xe4\x00\xe8\xbb\xec?'
p2568
tp2569
Rp2570
tp2571
a(g649
g22
(g26
S'\xdbH!\x00\xe4\xb1\xec?'
p2572
tp2573
Rp2574
tp2575
a(g2107
g22
(g26
S'\xa6\x8b^A\xef\xad\xec?'
p2576
tp2577
Rp2578
tp2579
asg1
((dp2580
g3
g4
(g5
g6
Ntp2581
Rp2582
(lp2583
g958
ag448
absg12
I1
sg13
I2
sg14
((lp2584
F1.0
aF1.0
a(lp2585
I0
aI1
atp2586
stp2587
Rp2588
(lp2589
(g977
g22
(g26
S'\x00\x00\x00\x00\x00\x00\xf0?'
p2590
tp2591
Rp2592
tp2593
a(g2306
g22
(g26
S'\xc9\xcfBT\xe6\xe6\xe5?'
p2594
tp2595
Rp2596
tp2597
a(g2311
g22
(g26
S'\x83sC\r~\x00\xe5?'
p2598
tp2599
Rp2600
tp2601
a(g2316
g22
(g26
S'\xbb\xdd\x13\xdc>\xb2\xe2?'
p2602
tp2603
Rp2604
tp2605
a(g2321
g22
(g26
S'\xa4\x81\xb7\x02=|\xe2?'
p2606
tp2607
Rp2608
tp2609
a(g2326
g22
(g26
S'\xf9\xdc\xcc\xe7\x7fo\xe2?'
p2610
tp2611
Rp2612
tp2613
a(g2331
g22
(g26
S'\xd7\xe1f\xed\x7f^\xe2?'
p2614
tp2615
Rp2616
tp2617
a(g2336
g22
(g26
S'\xbe0\xd2\xb9\xb7F\xe2?'
p2618
tp2619
Rp2620
tp2621
a(g2341
g22
(g26
S'k+6\x95\xd7\r\xe2?'
p2622
tp2623
Rp2624
tp2625
a(g2346
g22
(g26
S'gJ\xbe\xaf\xb6\xd1\xe1?'
p2626
tp2627
Rp2628
tp2629
a(g78
g22
(g26
S's\xda\xd0\x85G\x9a\xe1?'
p2630
tp2631
Rp2632
tp2633
a(g2355
g22
(g26
S'~\xf2\xf2\xeb\xc8\x8e\xe1?'
p2634
tp2635
Rp2636
tp2637
a(g2360
g22
(g26
S'\x82\xb4`\x1eo|\xe1?'
p2638
tp2639
Rp2640
tp2641
a(g2365
g22
(g26
S'\x16sW\xceNf\xe1?'
p2642
tp2643
Rp2644
tp2645
a(g2370
g22
(g26
S'\xbcx\xe0I\x7f_\xe1?'
p2646
tp2647
Rp2648
tp2649
a(g2375
g22
(g26
S'h>\xeb\xa0\x13W\xe1?'
p2650
tp2651
Rp2652
tp2653
a(g2380
g22
(g26
S'\xdf\xe0\xd8\xfa\x17J\xe1?'
p2654
tp2655
Rp2656
tp2657
a(g2385
g22
(g26
S'\x91\x81\xff\xd8\xd7\x15\xe1?'
p2658
tp2659
Rp2660
tp2661
a(g2390
g22
(g26
S'\xe2\xc8\x11U\xdf\x14\xe1?'
p2662
tp2663
Rp2664
tp2665
a(g2395
g22
(g26
S'AQS=\x94\t\xe1?'
p2666
tp2667
Rp2668
tp2669
as.